Certificate:
    Data:
        Version: 3 (0x2)
        Serial Number:
            64:38:0e:2b:1b:9a:e6:53:55:76:45:a8:ca:74:5e:dd
        Signature Algorithm: sha256WithRSAEncryption
        Issuer: CN=england-CA
        Validity
            Not Before: Sep  7 17:51:43 2025 GMT
            Not After : Dec 11 17:51:43 2027 GMT
        Subject: CN=england-CA
        Subject Public Key Info:
            Public Key Algorithm: rsaEncryption
                Public-Key: (2048 bit)
                Modulus:
                    00:ec:e4:5e:d5:f0:a5:fa:46:8f:b3:cf:61:37:87:
                    46:9e:d4:51:7b:c3:9a:21:83:a6:2a:ba:45:df:14:
                    bf:58:22:37:f8:bd:c0:52:7b:99:dc:40:e3:67:3c:
                    a3:f2:da:94:bb:01:6c:d4:d5:a6:70:49:7a:e4:2b:
                    d5:31:f7:b9:a2:77:6c:c4:da:e7:8d:24:af:08:4f:
                    6d:99:81:20:5f:4e:b0:0d:58:ec:81:c3:13:73:5c:
                    b3:93:90:47:ea:68:91:99:0f:d4:6f:2d:72:43:58:
                    a0:df:a1:50:25:f5:b9:cf:69:b9:33:42:54:f8:6b:
                    8b:aa:75:11:d1:89:4a:cb:ea:1c:16:35:e5:66:2c:
                    6e:58:14:34:b2:03:61:42:d0:a7:db:04:dd:6f:bd:
                    cd:f7:cb:f1:63:eb:f8:17:89:bb:20:fe:59:34:fe:
                    08:3a:e0:bf:74:27:05:60:0b:f1:b1:ba:53:d4:d5:
                    13:db:16:0e:91:b2:14:f7:fd:fb:41:2b:e7:9c:3d:
                    57:0f:7d:3d:3f:e3:4c:c0:86:68:30:45:90:b6:c1:
                    36:99:f7:e0:93:75:73:c7:94:d9:8b:bc:bf:05:ed:
                    ef:e4:e3:3e:fd:3b:47:79:22:57:1c:33:36:d6:68:
                    dd:12:d3:5b:ae:a1:83:02:d2:e5:76:87:2c:d1:81:
                    99:e5
                Exponent: 65537 (0x10001)
        X509v3 extensions:
            X509v3 Basic Constraints: 
                CA:FALSE
            X509v3 Subject Key Identifier: 
                73:0E:2B:31:00:2E:BA:0A:94:46:5C:7B:25:19:83:B3:D4:49:BA:8E
            X509v3 Authority Key Identifier: 
                keyid:D0:E7:FF:A8:32:B1:9F:C1:60:7D:66:5A:E2:19:E0:FE:EF:C8:D8:05
                DirName:/CN=england-CA
                serial:79:A9:5C:1D:96:38:73:3C:EA:23:D8:1B:A8:D3:2D:3A:F7:9C:09:D7
            X509v3 Extended Key Usage: 
                TLS Web Server Authentication
            X509v3 Key Usage: 
                Digital Signature, Key Encipherment
            X509v3 Subject Alternative Name: 
                DNS:england-CA
    Signature Algorithm: sha256WithRSAEncryption
    Signature Value:
        00:0c:f1:56:a7:22:b2:88:c8:33:10:48:cc:68:d5:19:cb:40:
        f2:50:f3:42:7e:53:37:d5:00:2a:25:53:5a:55:02:00:68:18:
        c1:11:dc:1c:13:61:6d:ec:db:37:63:82:70:6f:2a:9a:d8:13:
        38:dc:7c:c0:43:23:97:97:71:11:3c:86:07:f7:b9:96:14:64:
        e6:9a:42:cc:47:de:e3:77:eb:ca:3c:e6:e4:1c:97:9c:92:e7:
        fe:ea:9d:3b:aa:9f:ce:0c:bc:2b:17:91:e4:61:23:8e:df:7f:
        d6:7f:8d:3b:1a:da:71:71:ac:70:a1:e1:f8:a3:3b:02:af:da:
        4b:fd:1c:a1:f7:9f:01:47:20:fa:27:52:9e:88:b4:ae:e0:b2:
        2b:d7:1f:0c:65:0c:86:7f:cc:90:6e:7d:81:5a:d3:39:dd:a5:
        0a:16:37:8e:70:4c:0f:ce:1c:c0:f8:ac:60:54:91:ac:bb:12:
        7d:0f:89:3a:55:dc:45:e0:02:66:a5:9e:09:61:e8:d8:e0:cb:
        84:73:a4:75:4e:44:74:7a:aa:52:ce:1e:7f:7a:29:a8:fb:61:
        17:f1:a2:c6:b4:43:5a:82:ea:d4:ad:50:bd:f5:0c:fe:d0:ae:
        09:d8:d0:29:26:bc:c3:4e:0e:de:a2:1e:56:1b:a7:9a:b6:04:
        d8:4f:76:a8
-----BEGIN CERTIFICATE-----
MIIDbTCCAlWgAwIBAgIQZDgOKxua5lNVdkWoynRe3TANBgkqhkiG9w0BAQsFADAV
MRMwEQYDVQQDDAplbmdsYW5kLUNBMB4XDTI1MDkwNzE3NTE0M1oXDTI3MTIxMTE3
NTE0M1owFTETMBEGA1UEAwwKZW5nbGFuZC1DQTCCASIwDQYJKoZIhvcNAQEBBQAD
ggEPADCCAQoCggEBAOzkXtXwpfpGj7PPYTeHRp7UUXvDmiGDpiq6Rd8Uv1giN/i9
wFJ7mdxA42c8o/LalLsBbNTVpnBJeuQr1TH3uaJ3bMTa540krwhPbZmBIF9OsA1Y
7IHDE3Ncs5OQR+pokZkP1G8tckNYoN+hUCX1uc9puTNCVPhri6p1EdGJSsvqHBY1
5WYsblgUNLIDYULQp9sE3W+9zffL8WPr+BeJuyD+WTT+CDrgv3QnBWAL8bG6U9TV
E9sWDpGyFPf9+0Er55w9Vw99PT/jTMCGaDBFkLbBNpn34JN1c8eU2Yu8vwXt7+Tj
Pv07R3kiVxwzNtZo3RLTW66hgwLS5XaHLNGBmeUCAwEAAaOBuDCBtTAJBgNVHRME
AjAAMB0GA1UdDgQWBBRzDisxAC66CpRGXHslGYOz1Em6jjBQBgNVHSMESTBHgBTQ
5/+oMrGfwWB9ZlriGeD+78jYBaEZpBcwFTETMBEGA1UEAwwKZW5nbGFuZC1DQYIU
ealcHZY4czzqI9gbqNMtOvecCdcwEwYDVR0lBAwwCgYIKwYBBQUHAwEwCwYDVR0P
BAQDAgWgMBUGA1UdEQQOMAyCCmVuZ2xhbmQtQ0EwDQYJKoZIhvcNAQELBQADggEB
AAAM8VanIrKIyDMQSMxo1RnLQPJQ80J+UzfVAColU1pVAgBoGMER3BwTYW3s2zdj
gnBvKprYEzjcfMBDI5eXcRE8hgf3uZYUZOaaQsxH3uN368o85uQcl5yS5/7qnTuq
n84MvCsXkeRhI47ff9Z/jTsa2nFxrHCh4fijOwKv2kv9HKH3nwFHIPonUp6ItK7g
sivXHwxlDIZ/zJBufYFa0zndpQoWN45wTA/OHMD4rGBUkay7En0PiTpV3EXgAmal
nglh6Njgy4RzpHVORHR6qlLOHn96Kaj7YRfxosa0Q1qC6tStUL31DP7QrgnY0Ckm
vMNODt6iHlYbp5q2BNhPdqg=
-----END CERTIFICATE-----
